target datalayout = "e-m:e-p270:32:32-p271:32:32-p272:64:64-i64:64-i128:128-f80:128-n8:16:32:64-S128"
target triple = "x86_64-pc-linux-gnu"

%struct.strbuf = type { i64, i64, ptr }
%struct.strvec = type { ptr, i64, i64 }
%struct.bundle_header = type { i32, %struct.string_list, %struct.string_list, ptr, %struct.list_objects_filter_options }
%struct.string_list = type { ptr, i64, i64, i8, ptr }
%struct.list_objects_filter_options = type { %struct.strbuf, i32, i8, ptr, i64, i64, i32, i64, i64, ptr }
%struct.child_process = type { %struct.strvec, %struct.strvec, i32, i32, i64, ptr, ptr, i32, i32, i32, ptr, i16, ptr }
%struct.unbundle_opts = type { i32, ptr }

@.str.3 = private unnamed_addr constant [1 x i8] zeroinitializer, align 1
@.str.26 = private unnamed_addr constant [11 x i8] c"index-pack\00", align 1
@.str.27 = private unnamed_addr constant [11 x i8] c"--fix-thin\00", align 1
@.str.28 = private unnamed_addr constant [8 x i8] c"--stdin\00", align 1
@.str.29 = private unnamed_addr constant [23 x i8] c"--promisor=from-bundle\00", align 1
@.str.30 = private unnamed_addr constant [17 x i8] c"--fsck-objects%s\00", align 1
@.str.31 = private unnamed_addr constant [16 x i8] c"index-pack died\00", align 1
@git_gettext_enabled = external global i32, align 4

; Function Attrs: inlinehint nounwind uwtable
define internal i32 @const_error() #4 {
  ret i32 -1
}

; Function Attrs: inlinehint nounwind uwtable
define internal ptr @_(ptr noundef %0) #4 {
  %2 = alloca ptr, align 8
  %3 = alloca ptr, align 8
  store ptr %0, ptr %3, align 8, !tbaa !11
  %4 = load ptr, ptr %3, align 8, !tbaa !11
  %5 = load i8, ptr %4, align 1, !tbaa !24
  %6 = icmp ne i8 %5, 0
  br i1 %6, label %8, label %7

7:                                                ; preds = %1
  store ptr @.str.3, ptr %2, align 8
  br label %16

8:                                                ; preds = %1
  %9 = load i32, ptr @git_gettext_enabled, align 4, !tbaa !9
  %10 = icmp ne i32 %9, 0
  br i1 %10, label %13, label %11

11:                                               ; preds = %8
  %12 = load ptr, ptr %3, align 8, !tbaa !11
  store ptr %12, ptr %2, align 8
  br label %16

13:                                               ; preds = %8
  %14 = load ptr, ptr %3, align 8, !tbaa !11
  %15 = call ptr @dcgettext(ptr noundef null, ptr noundef %14, i32 noundef 5) #9
  store ptr %15, ptr %2, align 8
  br label %16

16:                                               ; preds = %13, %11, %7
  %17 = load ptr, ptr %2, align 8
  ret ptr %17
}

; Function Attrs: nounwind uwtable
define dso_local i32 @unbundle(ptr noundef %0, ptr noundef %1, i32 noundef %2, ptr noundef %3, ptr noundef %4) #0 {
  %6 = alloca i32, align 4
  %7 = alloca ptr, align 8
  %8 = alloca ptr, align 8
  %9 = alloca i32, align 4
  %10 = alloca ptr, align 8
  %11 = alloca ptr, align 8
  %12 = alloca %struct.child_process, align 8
  %13 = alloca %struct.unbundle_opts, align 8
  %14 = alloca i32, align 4
  store ptr %0, ptr %7, align 8, !tbaa !36
  store ptr %1, ptr %8, align 8, !tbaa !4
  store i32 %2, ptr %9, align 4, !tbaa !9
  store ptr %3, ptr %10, align 8, !tbaa !91
  store ptr %4, ptr %11, align 8, !tbaa !167
  call void @llvm.lifetime.start.p0(i64 120, ptr %12) #9
  call void @llvm.memcpy.p0.p0.i64(ptr align 8 %12, ptr align 8 @__const.unbundle.ip, i64 120, i1 false)
  call void @llvm.lifetime.start.p0(i64 16, ptr %13) #9
  call void @llvm.memset.p0.i64(ptr align 8 %13, i8 0, i64 16, i1 false)
  %15 = load ptr, ptr %11, align 8, !tbaa !167
  %16 = icmp ne ptr %15, null
  br i1 %16, label %18, label %17

17:                                               ; preds = %5
  store ptr %13, ptr %11, align 8, !tbaa !167
  br label %18

18:                                               ; preds = %17, %5
  %19 = load ptr, ptr %7, align 8, !tbaa !36
  %20 = load ptr, ptr %8, align 8, !tbaa !4
  %21 = load ptr, ptr %11, align 8, !tbaa !167
  %22 = getelementptr inbounds nuw %struct.unbundle_opts, ptr %21, i32 0, i32 0
  %23 = load i32, ptr %22, align 8, !tbaa !169
  %24 = call i32 @verify_bundle(ptr noundef %19, ptr noundef %20, i32 noundef %23)
  %25 = icmp ne i32 %24, 0
  br i1 %25, label %26, label %27

26:                                               ; preds = %18
  store i32 -1, ptr %6, align 4
  store i32 1, ptr %14, align 4
  br label %83

27:                                               ; preds = %18
  %28 = getelementptr inbounds nuw %struct.child_process, ptr %12, i32 0, i32 0
  call void (ptr, ...) @strvec_pushl(ptr noundef %28, ptr noundef @.str.26, ptr noundef @.str.27, ptr noundef @.str.28, ptr noundef null)
  %29 = load ptr, ptr %8, align 8, !tbaa !4
  %30 = getelementptr inbounds nuw %struct.bundle_header, ptr %29, i32 0, i32 4
  %31 = getelementptr inbounds nuw %struct.list_objects_filter_options, ptr %30, i32 0, i32 1
  %32 = load i32, ptr %31, align 8, !tbaa !82
  %33 = icmp ne i32 %32, 0
  br i1 %33, label %34, label %37

34:                                               ; preds = %27
  %35 = getelementptr inbounds nuw %struct.child_process, ptr %12, i32 0, i32 0
  %36 = call ptr @strvec_push(ptr noundef %35, ptr noundef @.str.29)
  br label %37

37:                                               ; preds = %34, %27
  %38 = load ptr, ptr %11, align 8, !tbaa !167
  %39 = getelementptr inbounds nuw %struct.unbundle_opts, ptr %38, i32 0, i32 0
  %40 = load i32, ptr %39, align 8, !tbaa !169
  %41 = and i32 %40, 4
  %42 = icmp ne i32 %41, 0
  br i1 %42, label %43, label %57

43:                                               ; preds = %37
  %44 = getelementptr inbounds nuw %struct.child_process, ptr %12, i32 0, i32 0
  %45 = load ptr, ptr %11, align 8, !tbaa !167
  %46 = getelementptr inbounds nuw %struct.unbundle_opts, ptr %45, i32 0, i32 1
  %47 = load ptr, ptr %46, align 8, !tbaa !171
  %48 = icmp ne ptr %47, null
  br i1 %48, label %49, label %53

49:                                               ; preds = %43
  %50 = load ptr, ptr %11, align 8, !tbaa !167
  %51 = getelementptr inbounds nuw %struct.unbundle_opts, ptr %50, i32 0, i32 1
  %52 = load ptr, ptr %51, align 8, !tbaa !171
  br label %54

53:                                               ; preds = %43
  br label %54

54:                                               ; preds = %53, %49
  %55 = phi ptr [ %52, %49 ], [ @.str.3, %53 ]
  %56 = call ptr (ptr, ptr, ...) @strvec_pushf(ptr noundef %44, ptr noundef @.str.30, ptr noundef %55)
  br label %57

57:                                               ; preds = %54, %37
  %58 = load ptr, ptr %10, align 8, !tbaa !91
  %59 = icmp ne ptr %58, null
  br i1 %59, label %60, label %65

60:                                               ; preds = %57
  %61 = getelementptr inbounds nuw %struct.child_process, ptr %12, i32 0, i32 0
  %62 = load ptr, ptr %10, align 8, !tbaa !91
  %63 = getelementptr inbounds nuw %struct.strvec, ptr %62, i32 0, i32 0
  %64 = load ptr, ptr %63, align 8, !tbaa !162
  call void @strvec_pushv(ptr noundef %61, ptr noundef %64)
  br label %65

65:                                               ; preds = %60, %57
  %66 = load i32, ptr %9, align 4, !tbaa !9
  %67 = getelementptr inbounds nuw %struct.child_process, ptr %12, i32 0, i32 7
  store i32 %66, ptr %67, align 8, !tbaa !163
  %68 = getelementptr inbounds nuw %struct.child_process, ptr %12, i32 0, i32 11
  %69 = load i16, ptr %68, align 8
  %70 = and i16 %69, -3
  %71 = or i16 %70, 2
  store i16 %71, ptr %68, align 8
  %72 = getelementptr inbounds nuw %struct.child_process, ptr %12, i32 0, i32 11
  %73 = load i16, ptr %72, align 8
  %74 = and i16 %73, -9
  %75 = or i16 %74, 8
  store i16 %75, ptr %72, align 8
  %76 = call i32 @run_command(ptr noundef %12)
  %77 = icmp ne i32 %76, 0
  br i1 %77, label %78, label %82

78:                                               ; preds = %65
  %79 = call ptr @_(ptr noundef @.str.31)
  %80 = call i32 (ptr, ...) @error(ptr noundef %79)
  %81 = call i32 @const_error()
  store i32 %81, ptr %6, align 4
  store i32 1, ptr %14, align 4
  br label %83

82:                                               ; preds = %65
  store i32 0, ptr %6, align 4
  store i32 1, ptr %14, align 4
  br label %83

83:                                               ; preds = %82, %78, %26
  call void @llvm.lifetime.end.p0(i64 16, ptr %13) #9
  call void @llvm.lifetime.end.p0(i64 120, ptr %12) #9
  %84 = load i32, ptr %6, align 4
  ret i32 %84
}