; Function Attrs: nounwind uwtable
define dso_local range(i32 -1, 1) i32 @unbundle(ptr noundef %0, ptr noundef %1, i32 noundef %2, ptr noundef readonly %3, ptr noundef readonly %4) local_unnamed_addr #3 {
  %6 = alloca %struct.child_process, align 8
  call void @llvm.lifetime.start.p0(i64 120, ptr nonnull %6) #15
  call void @llvm.memcpy.p0.p0.i64(ptr noundef nonnull align 8 dereferenceable(120) %6, ptr noundef nonnull align 8 dereferenceable(120) @__const.write_pack_data.pack_objects, i64 120, i1 false)
  %.not = icmp eq ptr %4, null
  br i1 %.not, label %.cont24, label %.else26

.else26:                                          ; preds = %5
  %.else.val27 = load i32, ptr %4, align 8, !tbaa !152
  br label %.cont24

.cont24:                                          ; preds = %5, %.else26
  %7 = phi i32 [ 0, %5 ], [ %.else.val27, %.else26 ]
  %8 = tail call i32 @verify_bundle(ptr noundef %0, ptr noundef %1, i32 noundef %7)
  %.not13 = icmp eq i32 %8, 0
  br i1 %.not13, label %9, label %30

9:                                                ; preds = %.cont24
  call void (ptr, ...) @strvec_pushl(ptr noundef nonnull %6, ptr noundef nonnull @.str.26, ptr noundef nonnull @.str.27, ptr noundef nonnull @.str.28, ptr noundef null) #15
  %10 = getelementptr inbounds nuw i8, ptr %1, i64 120
  %11 = load i32, ptr %10, align 8, !tbaa !76
  %.not14 = icmp eq i32 %11, 0
  br i1 %.not14, label %14, label %12

12:                                               ; preds = %9
  %13 = call ptr @strvec_push(ptr noundef nonnull %6, ptr noundef nonnull @.str.29) #15
  br label %14

14:                                               ; preds = %12, %9
  br i1 %.not, label %.cont21.thread, label %.cont21

.cont21:                                          ; preds = %14
  %.else.val23 = load i32, ptr %4, align 8, !tbaa !152
  %15 = and i32 %.else.val23, 4
  %.not15 = icmp eq i32 %15, 0
  br i1 %.not15, label %.cont21.thread, label %.cont

.cont:                                            ; preds = %.cont21
  %.sroa.gep19 = getelementptr inbounds nuw i8, ptr %4, i64 8
  %.else.val = load ptr, ptr %.sroa.gep19, align 8, !tbaa !154
  %.not16 = icmp eq ptr %.else.val, null
  %spec.select = select i1 %.not16, ptr @.str.3, ptr %.else.val
  %16 = call ptr (ptr, ptr, ...) @strvec_pushf(ptr noundef nonnull %6, ptr noundef nonnull @.str.30, ptr noundef nonnull %spec.select) #15
  br label %.cont21.thread

.cont21.thread:                                   ; preds = %14, %.cont, %.cont21
  %.not17 = icmp eq ptr %3, null
  br i1 %.not17, label %19, label %17

17:                                               ; preds = %.cont21.thread
  %18 = load ptr, ptr %3, align 8, !tbaa !140
  call void @strvec_pushv(ptr noundef nonnull %6, ptr noundef %18) #15
  br label %19

19:                                               ; preds = %17, %.cont21.thread
  %20 = getelementptr inbounds nuw i8, ptr %6, i64 80
  store i32 %2, ptr %20, align 8, !tbaa !141
  %21 = getelementptr inbounds nuw i8, ptr %6, i64 104
  %22 = load i16, ptr %21, align 8
  %23 = or i16 %22, 10
  store i16 %23, ptr %21, align 8
  %24 = call i32 @run_command(ptr noundef nonnull %6) #15
  %.not18 = icmp eq i32 %24, 0
  br i1 %.not18, label %30, label %25

25:                                               ; preds = %19
  %26 = load i32, ptr @git_gettext_enabled, align 4, !tbaa !16
  %.not4.i = icmp eq i32 %26, 0
  br i1 %.not4.i, label %_.exit, label %27

27:                                               ; preds = %25
  %28 = call ptr @dcgettext(ptr noundef null, ptr noundef nonnull @.str.31, i32 noundef 5) #15
  br label %_.exit

_.exit:                                           ; preds = %25, %27
  %.0.i = phi ptr [ %28, %27 ], [ @.str.31, %25 ]
  %29 = call i32 (ptr, ...) @error(ptr noundef %.0.i) #15
  br label %30

30:                                               ; preds = %19, %.cont24, %_.exit
  %.0 = phi i32 [ -1, %_.exit ], [ -1, %.cont24 ], [ 0, %19 ]
  call void @llvm.lifetime.end.p0(i64 120, ptr nonnull %6) #15
  ret i32 %.0
}